	.file	"pivot.c"
	.text
.Ltext0:
	.cfi_sections	.debug_frame
	.p2align 4,,15
	.globl	compare_2_combinations
	.def	compare_2_combinations;	.scl	2;	.type	32;	.endef
	.seh_proc	compare_2_combinations
compare_2_combinations:
.LVL0:
.LFB5614:
	.file 1 "./pivot.c"
	.loc 1 174 58 view -0
	.cfi_startproc
	.loc 1 174 58 is_stmt 0 view .LVU1
	.seh_endprologue
	.loc 1 175 5 is_stmt 1 view .LVU2
.LVL1:
	.loc 1 176 5 view .LVU3
	.loc 1 178 5 view .LVU4
	.loc 1 179 16 is_stmt 0 view .LVU5
	movl	$1, %eax
	.loc 1 178 11 view .LVU6
	movsd	8(%rcx), %xmm0
	.loc 1 178 22 view .LVU7
	movsd	8(%rdx), %xmm1
	.loc 1 178 8 view .LVU8
	comisd	%xmm1, %xmm0
	ja	.L1
	.loc 1 180 12 is_stmt 1 view .LVU9
	.loc 1 180 15 is_stmt 0 view .LVU10
	xorl	%eax, %eax
	comisd	%xmm0, %xmm1
	seta	%al
	negl	%eax
.L1:
	.loc 1 185 1 view .LVU11
	ret
	.cfi_endproc
.LFE5614:
	.seh_endproc
	.p2align 4,,15
	.def	main._omp_fn.0;	.scl	3;	.type	32;	.endef
	.seh_proc	main._omp_fn.0
main._omp_fn.0:
.LVL2:
.LFB5619:
	.loc 1 311 9 is_stmt 1 view -0
	.cfi_startproc
	.loc 1 311 9 is_stmt 0 view .LVU13
	pushq	%r15
	.seh_pushreg	%r15
	.cfi_def_cfa_offset 16
	.cfi_offset 15, -16
	pushq	%r14
	.seh_pushreg	%r14
	.cfi_def_cfa_offset 24
	.cfi_offset 14, -24
	pushq	%r13
	.seh_pushreg	%r13
	.cfi_def_cfa_offset 32
	.cfi_offset 13, -32
	pushq	%r12
	.seh_pushreg	%r12
	.cfi_def_cfa_offset 40
	.cfi_offset 12, -40
	pushq	%rbp
	.seh_pushreg	%rbp
	.cfi_def_cfa_offset 48
	.cfi_offset 6, -48
	pushq	%rdi
	.seh_pushreg	%rdi
	.cfi_def_cfa_offset 56
	.cfi_offset 5, -56
	pushq	%rsi
	.seh_pushreg	%rsi
	.cfi_def_cfa_offset 64
	.cfi_offset 4, -64
	pushq	%rbx
	.seh_pushreg	%rbx
	.cfi_def_cfa_offset 72
	.cfi_offset 3, -72
	subq	$152, %rsp
	.seh_stackalloc	152
	.cfi_def_cfa_offset 224
	.seh_endprologue
	.loc 1 311 9 view .LVU14
	movl	(%rcx), %esi
	movl	%esi, 136(%rsp)
.LVL3:
.LBB95:
.LBB96:
	.loc 1 312 14 is_stmt 1 view .LVU15
	call	omp_get_num_threads
.LVL4:
	.loc 1 312 14 is_stmt 0 view .LVU16
	movl	%eax, %ebx
	call	omp_get_thread_num
.LVL5:
	imull	$200, %eax, %edi
	leal	200(%rdi), %edx
	movl	%edi, 108(%rsp)
	cmpl	%esi, %edx
	cmovg	%esi, %edx
	cmpl	%edi, %esi
	movl	%edx, 60(%rsp)
	jle	.L5
.LBB97:
	.loc 1 314 26 view .LVU17
	movl	m(%rip), %edx
	movl	%eax, %ecx
	addl	%ebx, %eax
	.loc 1 314 30 view .LVU18
	movslq	n(%rip), %r10
	imull	$200, %eax, %eax
.LBB98:
.LBB99:
.LBB100:
	.loc 1 321 34 view .LVU19
	movq	cache_eu_dist(%rip), %r13
	.loc 1 322 43 view .LVU20
	movq	euclidean_distance(%rip), %r14
.LBE100:
.LBE99:
.LBE98:
	.loc 1 314 26 view .LVU21
	imull	%edx, %ecx
	subl	%edi, %eax
	movq	.LC1(%rip), %xmm3
	.loc 1 314 30 view .LVU22
	movq	%r10, %r9
	movl	%eax, 140(%rsp)
	leal	-1(%r9), %eax
	movl	%r9d, %r11d
	.loc 1 314 17 view .LVU23
	imull	%r10d, %ecx
	movl	%eax, 36(%rsp)
	salq	$3, %r10
	andl	$-2, %r11d
	movq	%rax, 88(%rsp)
	leal	-2(%r9), %eax
	addq	$2, %rax
	movl	%ecx, %esi
.LVL6:
	.loc 1 314 17 view .LVU24
	movl	%ecx, 104(%rsp)
	imull	$200, %ebx, %ecx
	movq	%rax, 96(%rsp)
	movslq	%ecx, %rcx
	salq	$4, %rcx
	movq	%rcx, 128(%rsp)
	movslq	%edi, %rcx
	salq	$4, %rcx
	addq	object(%rip), %rcx
	movq	%rcx, 112(%rsp)
	movslq	%esi, %rcx
	movq	%rcx, 72(%rsp)
	leaq	0(%r13,%rcx,8), %rcx
	movq	%rcx, 64(%rsp)
	leal	-1(%rdx), %ecx
	movq	%rcx, 120(%rsp)
	movl	%r9d, %ecx
	shrl	%ecx
	salq	$4, %rcx
	movq	%rcx, %r15
.L10:
.LBE97:
.LBE96:
.LBE95:
	.loc 1 311 9 view .LVU25
	movl	108(%rsp), %eax
	movq	112(%rsp), %rbx
	movl	%eax, 56(%rsp)
	movq	120(%rsp), %rax
	addq	$1, %rax
	movq	%rax, 80(%rsp)
	.p2align 4,,10
.L9:
.LVL7:
.LBB127:
.LBB125:
.LBB123:
	.loc 1 313 13 is_stmt 1 view .LVU26
	.loc 1 314 13 view .LVU27
	.loc 1 315 13 view .LVU28
.LBB106:
	.loc 1 316 13 is_stmt 0 view .LVU29
	testl	%edx, %edx
.LBE106:
	.loc 1 315 18 view .LVU30
	movq	(%rbx), %rdi
.LVL8:
	.loc 1 316 13 is_stmt 1 view .LVU31
.LBB107:
	.loc 1 316 18 view .LVU32
	.loc 1 316 13 is_stmt 0 view .LVU33
	jle	.L39
	testl	%r9d, %r9d
	jle	.L11
	movq	80(%rsp), %rax
	movq	%rbx, 48(%rsp)
	movl	104(%rsp), %esi
	movl	%edx, 40(%rsp)
	movq	64(%rsp), %rcx
	movq	88(%rsp), %r12
	leaq	(%rdi,%rax,4), %rax
	movq	%rax, %rbx
.LVL9:
	.p2align 4,,10
.L20:
.LBB104:
	.loc 1 317 17 is_stmt 1 view .LVU34
	.loc 1 318 17 view .LVU35
	.loc 1 319 17 view .LVU36
	.loc 1 319 21 is_stmt 0 view .LVU37
	movl	(%rdi), %eax
	imull	%r9d, %eax
.LVL10:
	.loc 1 320 17 is_stmt 1 view .LVU38
.LBB101:
	.loc 1 320 22 view .LVU39
	.loc 1 320 22 is_stmt 0 view .LVU40
	movslq	%eax, %r8
	leaq	(%r14,%r8,8), %rdx
	leaq	16(%r14,%r8,8), %r8
	cmpq	%r8, %rcx
	leaq	16(%rcx), %r8
	setnb	%bpl
	cmpq	%r8, %rdx
	setnb	%r8b
	orb	%r8b, %bpl
	je	.L19
.LBE101:
	.loc 1 319 21 view .LVU41
	xorl	%r8d, %r8d
	cmpl	$3, 36(%rsp)
	jbe	.L19
.LVL11:
	.p2align 4,,10
.L17:
.LBB102:
	.loc 1 321 21 is_stmt 1 discriminator 3 view .LVU42
	.loc 1 322 43 is_stmt 0 discriminator 3 view .LVU43
	movq	(%rdx,%r8), %xmm0
	movhpd	8(%rdx,%r8), %xmm0
	.loc 1 321 47 discriminator 3 view .LVU44
	movlpd	%xmm0, (%rcx,%r8)
	movhpd	%xmm0, 8(%rcx,%r8)
	.loc 1 321 47 discriminator 3 view .LVU45
	addq	$16, %r8
	cmpq	%r8, %r15
	jne	.L17
	cmpl	%r9d, %r11d
	je	.L23
.LVL12:
	.loc 1 321 21 is_stmt 1 view .LVU46
	.loc 1 322 48 is_stmt 0 view .LVU47
	addl	%r11d, %eax
.LVL13:
	.loc 1 322 48 view .LVU48
	cltq
	.loc 1 322 43 view .LVU49
	movsd	(%r14,%rax,8), %xmm0
	.loc 1 321 38 view .LVU50
	leal	(%rsi,%r11), %eax
	cltq
	.loc 1 321 47 view .LVU51
	movsd	%xmm0, 0(%r13,%rax,8)
.LVL14:
.L23:
	.loc 1 321 47 view .LVU52
	addq	$4, %rdi
	addq	%r10, %rcx
	addl	%r9d, %esi
.LVL15:
	.loc 1 321 47 view .LVU53
.LBE102:
.LBE104:
	.loc 1 316 13 view .LVU54
	cmpq	%rbx, %rdi
	jne	.L20
	movl	40(%rsp), %edx
	movq	48(%rsp), %rbx
.LVL16:
.L8:
	.loc 1 316 13 view .LVU55
.LBE107:
.LBB108:
.LBB109:
	.loc 1 326 17 is_stmt 1 view .LVU56
	.loc 1 327 17 view .LVU57
.LBB110:
	.loc 1 327 22 view .LVU58
	.loc 1 327 17 is_stmt 0 view .LVU59
	cmpl	$1, %r9d
	jle	.L11
	.loc 1 327 17 view .LVU60
	movq	%r14, 40(%rsp)
	movq	96(%rsp), %r14
	movl	$1, %ebp
.LBE110:
.LBE109:
	.loc 1 325 22 view .LVU61
	xorl	%eax, %eax
	movl	%r11d, 48(%rsp)
	movq	72(%rsp), %r11
.LVL17:
	.p2align 4,,10
.L12:
	.loc 1 325 22 view .LVU62
	movq	%rbp, %r8
	movsd	8(%rbx), %xmm2
	movl	%ebp, %r12d
.LVL18:
	.loc 1 325 22 view .LVU63
	movl	%ebp, %esi
	subq	%rax, %r8
	addq	%r11, %rax
	leaq	0(%r13,%rax,8), %rdi
.LVL19:
	.p2align 4,,10
.L15:
.LBB120:
.LBB118:
.LBB111:
.LBB112:
.LBB113:
	.loc 1 106 5 view .LVU64
	testl	%edx, %edx
	jle	.L13
	.loc 1 106 5 view .LVU65
	movq	%rdi, %rax
	.loc 1 106 14 view .LVU66
	xorl	%ecx, %ecx
.LBE113:
	.loc 1 104 12 view .LVU67
	pxor	%xmm1, %xmm1
.LVL20:
	.p2align 4,,10
.L14:
.LBB117:
.LBB114:
	.loc 1 107 9 is_stmt 1 view .LVU68
	.loc 1 108 9 view .LVU69
	.loc 1 109 9 view .LVU70
	.loc 1 111 9 view .LVU71
	.loc 1 109 47 is_stmt 0 view .LVU72
	movsd	(%rax), %xmm0
.LBE114:
	.loc 1 106 29 view .LVU73
	addl	$1, %ecx
.LVL21:
.LBB115:
	.loc 1 109 47 view .LVU74
	subsd	(%rax,%r8,8), %xmm0
	addq	%r10, %rax
.LVL22:
	.loc 1 109 47 view .LVU75
.LBE115:
	.loc 1 106 5 view .LVU76
	cmpl	%ecx, %edx
.LBB116:
	.loc 1 109 16 view .LVU77
	andpd	%xmm3, %xmm0
	maxsd	%xmm0, %xmm1
.LVL23:
	.loc 1 109 16 view .LVU78
.LBE116:
	.loc 1 106 5 view .LVU79
	jne	.L14
	addsd	%xmm1, %xmm2
.LVL24:
.L13:
	.loc 1 106 5 view .LVU80
.LBE117:
	.loc 1 115 5 is_stmt 1 view .LVU81
.LBE112:
.LBE111:
	.loc 1 327 57 is_stmt 0 view .LVU82
	addl	$1, %esi
.LVL25:
	.loc 1 327 57 view .LVU83
	addq	$1, %r8
	.loc 1 328 36 view .LVU84
	movsd	%xmm2, 8(%rbx)
	.loc 1 327 17 view .LVU85
	cmpl	%esi, %r9d
	jg	.L15
.LVL26:
	.loc 1 327 17 view .LVU86
.LBE118:
	.loc 1 326 17 is_stmt 1 view .LVU87
	.loc 1 327 17 view .LVU88
.LBB119:
	.loc 1 327 22 view .LVU89
	.loc 1 327 22 is_stmt 0 view .LVU90
	addq	$1, %rbp
.LVL27:
	.loc 1 327 22 view .LVU91
	movslq	%r12d, %rax
	.loc 1 327 17 view .LVU92
	cmpq	%rbp, %r14
	jne	.L12
	movq	40(%rsp), %r14
	movl	48(%rsp), %r11d
.LVL28:
.L11:
	.loc 1 327 17 view .LVU93
	addl	$1, 56(%rsp)
.LVL29:
	.loc 1 327 17 view .LVU94
	addq	$16, %rbx
	movl	56(%rsp), %eax
.LVL30:
	.loc 1 327 17 view .LVU95
	cmpl	60(%rsp), %eax
	jl	.L9
	movl	140(%rsp), %eax
.LVL31:
	.loc 1 327 17 view .LVU96
	addl	%eax, 108(%rsp)
	movl	108(%rsp), %edi
	movl	136(%rsp), %ebx
	movq	128(%rsp), %rcx
	leal	200(%rdi), %eax
	cmpl	%ebx, %eax
	cmovg	%ebx, %eax
	addq	%rcx, 112(%rsp)
	cmpl	%edi, %ebx
	movl	%eax, 60(%rsp)
	jg	.L10
.LVL32:
.L5:
	.loc 1 327 17 view .LVU97
.LBE119:
.LBE120:
.LBE108:
.LBE123:
.LBE125:
.LBE127:
	.loc 1 311 9 view .LVU98
	addq	$152, %rsp
	.cfi_remember_state
	.cfi_def_cfa_offset 72
	popq	%rbx
	.cfi_restore 3
	.cfi_def_cfa_offset 64
	popq	%rsi
	.cfi_restore 4
	.cfi_def_cfa_offset 56
	popq	%rdi
	.cfi_restore 5
	.cfi_def_cfa_offset 48
	popq	%rbp
	.cfi_restore 6
	.cfi_def_cfa_offset 40
	popq	%r12
	.cfi_restore 12
	.cfi_def_cfa_offset 32
	popq	%r13
	.cfi_restore 13
	.cfi_def_cfa_offset 24
	popq	%r14
	.cfi_restore 14
	.cfi_def_cfa_offset 16
	popq	%r15
	.cfi_restore 15
	.cfi_def_cfa_offset 8
	ret
.LVL33:
	.p2align 4,,10
.L19:
	.cfi_restore_state
.LBB128:
.LBB126:
.LBB124:
.LBB121:
.LBB105:
	.loc 1 319 21 view .LVU99
	xorl	%eax, %eax
.LVL34:
	.loc 1 319 21 view .LVU100
	jmp	.L22
.LVL35:
	.p2align 4,,10
.L25:
.LBB103:
	.loc 1 320 17 view .LVU101
	movq	%r8, %rax
.LVL36:
.L22:
	.loc 1 321 21 is_stmt 1 view .LVU102
	.loc 1 322 43 is_stmt 0 view .LVU103
	movsd	(%rdx,%rax,8), %xmm0
	leaq	1(%rax), %r8
	.loc 1 320 17 view .LVU104
	cmpq	%rax, %r12
	.loc 1 321 47 view .LVU105
	movsd	%xmm0, (%rcx,%rax,8)
.LVL37:
	.loc 1 320 17 view .LVU106
	jne	.L25
	jmp	.L23
.LVL38:
.L39:
	.loc 1 320 17 view .LVU107
.LBE103:
.LBE105:
.LBE121:
.LBB122:
	.loc 1 325 13 view .LVU108
	testl	%r9d, %r9d
	jg	.L8
	jmp	.L11
.LBE122:
.LBE124:
.LBE126:
.LBE128:
	.cfi_endproc
.LFE5619:
	.seh_endproc
	.p2align 4,,15
	.def	c_n_m.part.1;	.scl	3;	.type	32;	.endef
	.seh_proc	c_n_m.part.1
c_n_m.part.1:
.LVL39:
.LFB5620:
	.loc 1 119 19 is_stmt 1 view -0
	.cfi_startproc
	.loc 1 119 19 is_stmt 0 view .LVU110
	.seh_endprologue
.LVL40:
.LBB131:
.LBB132:
	.loc 1 123 9 view .LVU111
	testl	%edx, %edx
	jle	.L43
	leal	1(%rdx), %r9d
.LBE132:
	.loc 1 122 13 view .LVU112
	movl	$1, %eax
.LBB133:
	.loc 1 123 18 view .LVU113
	movl	$1, %r8d
	addl	$1, %ecx
.LVL41:
	.p2align 4,,10
.L42:
	.loc 1 124 13 is_stmt 1 view .LVU114
	.loc 1 124 29 is_stmt 0 view .LVU115
	movl	%ecx, %edx
	subl	%r8d, %edx
	imull	%edx, %eax
.LVL42:
	.loc 1 124 20 view .LVU116
	cltd
	idivl	%r8d
.LVL43:
	.loc 1 123 34 view .LVU117
	addl	$1, %r8d
.LVL44:
	.loc 1 123 9 view .LVU118
	cmpl	%r9d, %r8d
	jne	.L42
.LBE133:
	.loc 1 126 9 is_stmt 1 view .LVU119
	.loc 1 126 17 is_stmt 0 view .LVU120
	movl	%eax, __c_n_m(%rip)
	.loc 1 127 9 is_stmt 1 view .LVU121
.LBE131:
	.loc 1 130 1 is_stmt 0 view .LVU122
	ret
.LVL45:
	.p2align 4,,10
.L43:
.LBB134:
	.loc 1 122 13 view .LVU123
	movl	$1, %eax
	.loc 1 126 9 is_stmt 1 view .LVU124
	.loc 1 126 17 is_stmt 0 view .LVU125
	movl	%eax, __c_n_m(%rip)
	.loc 1 127 9 is_stmt 1 view .LVU126
.LBE134:
	.loc 1 130 1 is_stmt 0 view .LVU127
	ret
	.cfi_endproc
.LFE5620:
	.seh_endproc
	.p2align 4,,15
	.def	gettimeofday.constprop.3;	.scl	3;	.type	32;	.endef
	.seh_proc	gettimeofday.constprop.3
gettimeofday.constprop.3:
.LVL46:
.LFB5621:
	.loc 1 11 5 is_stmt 1 view -0
	.cfi_startproc
	.loc 1 11 5 is_stmt 0 view .LVU129
	pushq	%rbx
	.seh_pushreg	%rbx
	.cfi_def_cfa_offset 16
	.cfi_offset 3, -16
	subq	$96, %rsp
	.seh_stackalloc	96
	.cfi_def_cfa_offset 112
	.seh_endprologue
.LVL47:
	.loc 1 12 5 is_stmt 1 view .LVU130
	.loc 1 13 5 view .LVU131
	.loc 1 14 5 view .LVU132
	.loc 1 15 5 view .LVU133
	.loc 1 11 5 is_stmt 0 view .LVU134
	movq	%rcx, %rbx
	.loc 1 15 5 view .LVU135
	leaq	32(%rsp), %rcx
.LVL48:
	.loc 1 15 5 view .LVU136
	call	*__imp_GetLocalTime(%rip)
.LVL49:
	.loc 1 16 5 is_stmt 1 view .LVU137
	.loc 1 16 21 is_stmt 0 view .LVU138
	movzwl	32(%rsp), %eax
.LBB135:
.LBB136:
	.file 2 "D:/mingw64/x86_64-w64-mingw32/include/time.h"
	.loc 2 240 62 view .LVU139
	leaq	48(%rsp), %rcx
.LBE136:
.LBE135:
	.loc 1 22 17 view .LVU140
	movl	$-1, 80(%rsp)
	.loc 1 16 28 view .LVU141
	subl	$1900, %eax
	movl	%eax, 68(%rsp)
	.loc 1 17 5 is_stmt 1 view .LVU142
	.loc 1 17 20 is_stmt 0 view .LVU143
	movzwl	34(%rsp), %eax
	.loc 1 17 28 view .LVU144
	subl	$1, %eax
	movl	%eax, 64(%rsp)
	.loc 1 18 5 is_stmt 1 view .LVU145
	.loc 1 18 21 is_stmt 0 view .LVU146
	movzwl	38(%rsp), %eax
	movl	%eax, 60(%rsp)
	.loc 1 19 5 is_stmt 1 view .LVU147
	.loc 1 19 21 is_stmt 0 view .LVU148
	movzwl	40(%rsp), %eax
	movl	%eax, 56(%rsp)
	.loc 1 20 5 is_stmt 1 view .LVU149
	.loc 1 20 20 is_stmt 0 view .LVU150
	movzwl	42(%rsp), %eax
	movl	%eax, 52(%rsp)
	.loc 1 21 5 is_stmt 1 view .LVU151
	.loc 1 21 20 is_stmt 0 view .LVU152
	movzwl	44(%rsp), %eax
	movl	%eax, 48(%rsp)
	.loc 1 22 5 is_stmt 1 view .LVU153
	.loc 1 23 5 view .LVU154
.LVL50:
.LBB138:
.LBI135:
	.loc 2 240 30 view .LVU155
.LBB137:
	.loc 2 240 55 view .LVU156
	.loc 2 240 62 is_stmt 0 view .LVU157
	call	*__imp__mktime64(%rip)
.LVL51:
	.loc 2 240 62 view .LVU158
.LBE137:
.LBE138:
	.loc 1 24 5 is_stmt 1 view .LVU159
	.loc 1 24 16 is_stmt 0 view .LVU160
	movl	%eax, (%rbx)
	.loc 1 25 5 is_stmt 1 view .LVU161
	.loc 1 25 22 is_stmt 0 view .LVU162
	movzwl	46(%rsp), %eax
.LVL52:
	.loc 1 25 37 view .LVU163
	imull	$1000, %eax, %eax
	.loc 1 25 17 view .LVU164
	movl	%eax, 4(%rbx)
	.loc 1 26 5 is_stmt 1 view .LVU165
	.loc 1 27 1 is_stmt 0 view .LVU166
	xorl	%eax, %eax
	addq	$96, %rsp
	.cfi_def_cfa_offset 16
	popq	%rbx
	.cfi_restore 3
	.cfi_def_cfa_offset 8
.LVL53:
	.loc 1 27 1 view .LVU167
	ret
	.cfi_endproc
.LFE5621:
	.seh_endproc
	.p2align 4,,15
	.globl	gettimeofday
	.def	gettimeofday;	.scl	2;	.type	32;	.endef
	.seh_proc	gettimeofday
gettimeofday:
.LVL54:
.LFB5601:
	.loc 1 11 49 is_stmt 1 view -0
	.cfi_startproc
	.loc 1 11 49 is_stmt 0 view .LVU169
	pushq	%rbx
	.seh_pushreg	%rbx
	.cfi_def_cfa_offset 16
	.cfi_offset 3, -16
	subq	$96, %rsp
	.seh_stackalloc	96
	.cfi_def_cfa_offset 112
	.seh_endprologue
	.loc 1 12 5 is_stmt 1 view .LVU170
	.loc 1 13 5 view .LVU171
	.loc 1 14 5 view .LVU172
	.loc 1 15 5 view .LVU173
	.loc 1 11 49 is_stmt 0 view .LVU174
	movq	%rcx, %rbx
	.loc 1 15 5 view .LVU175
	leaq	32(%rsp), %rcx
.LVL55:
	.loc 1 15 5 view .LVU176
	call	*__imp_GetLocalTime(%rip)
.LVL56:
	.loc 1 16 5 is_stmt 1 view .LVU177
	.loc 1 16 21 is_stmt 0 view .LVU178
	movzwl	32(%rsp), %eax
.LBB139:
.LBB140:
	.loc 2 240 62 view .LVU179
	leaq	48(%rsp), %rcx
.LBE140:
.LBE139:
	.loc 1 22 17 view .LVU180
	movl	$-1, 80(%rsp)
	.loc 1 16 28 view .LVU181
	subl	$1900, %eax
	movl	%eax, 68(%rsp)
	.loc 1 17 5 is_stmt 1 view .LVU182
	.loc 1 17 20 is_stmt 0 view .LVU183
	movzwl	34(%rsp), %eax
	.loc 1 17 28 view .LVU184
	subl	$1, %eax
	movl	%eax, 64(%rsp)
	.loc 1 18 5 is_stmt 1 view .LVU185
	.loc 1 18 21 is_stmt 0 view .LVU186
	movzwl	38(%rsp), %eax
	movl	%eax, 60(%rsp)
	.loc 1 19 5 is_stmt 1 view .LVU187
	.loc 1 19 21 is_stmt 0 view .LVU188
	movzwl	40(%rsp), %eax
	movl	%eax, 56(%rsp)
	.loc 1 20 5 is_stmt 1 view .LVU189
	.loc 1 20 20 is_stmt 0 view .LVU190
	movzwl	42(%rsp), %eax
	movl	%eax, 52(%rsp)
	.loc 1 21 5 is_stmt 1 view .LVU191
	.loc 1 21 20 is_stmt 0 view .LVU192
	movzwl	44(%rsp), %eax
	movl	%eax, 48(%rsp)
	.loc 1 22 5 is_stmt 1 view .LVU193
	.loc 1 23 5 view .LVU194
.LVL57:
.LBB142:
.LBI139:
	.loc 2 240 30 view .LVU195
.LBB141:
	.loc 2 240 55 view .LVU196
	.loc 2 240 62 is_stmt 0 view .LVU197
	call	*__imp__mktime64(%rip)
.LVL58:
	.loc 2 240 62 view .LVU198
.LBE141:
.LBE142:
	.loc 1 24 5 is_stmt 1 view .LVU199
	.loc 1 24 16 is_stmt 0 view .LVU200
	movl	%eax, (%rbx)
	.loc 1 25 5 is_stmt 1 view .LVU201
	.loc 1 25 22 is_stmt 0 view .LVU202
	movzwl	46(%rsp), %eax
.LVL59:
	.loc 1 25 37 view .LVU203
	imull	$1000, %eax, %eax
	.loc 1 25 17 view .LVU204
	movl	%eax, 4(%rbx)
	.loc 1 26 5 is_stmt 1 view .LVU205
	.loc 1 27 1 is_stmt 0 view .LVU206
	xorl	%eax, %eax
	addq	$96, %rsp
	.cfi_def_cfa_offset 16
	popq	%rbx
	.cfi_restore 3
	.cfi_def_cfa_offset 8
.LVL60:
	.loc 1 27 1 view .LVU207
	ret
	.cfi_endproc
.LFE5601:
	.seh_endproc
	.p2align 4,,15
	.globl	get_cpu_core_num
	.def	get_cpu_core_num;	.scl	2;	.type	32;	.endef
	.seh_proc	get_cpu_core_num
get_cpu_core_num:
.LFB5602:
	.loc 1 33 24 is_stmt 1 view -0
	.cfi_startproc
	subq	$88, %rsp
	.seh_stackalloc	88
	.cfi_def_cfa_offset 96
	.seh_endprologue
	.loc 1 34 5 view .LVU209
	.loc 1 35 5 view .LVU210
	leaq	32(%rsp), %rcx
	call	*__imp_GetSystemInfo(%rip)
.LVL61:
	.loc 1 36 5 view .LVU211
	.loc 1 37 1 is_stmt 0 view .LVU212
	movl	64(%rsp), %eax
	addq	$88, %rsp
	.cfi_def_cfa_offset 8
	ret
	.cfi_endproc
.LFE5602:
	.seh_endproc
	.def	__main;	.scl	2;	.type	32;	.endef
	.section .rdata,"dr"
.LC2:
	.ascii "uniformvector-2dim-5h.txt\0"
.LC4:
	.ascii "NOT DEBUG MODE!\0"
.LC5:
	.ascii "Usage: ./pivot <filename>\0"
.LC6:
	.ascii "r\0"
.LC7:
	.ascii "%s file not found.\12\0"
.LC8:
	.ascii "%d\0"
	.align 8
.LC9:
	.ascii "dim = %d, point number = %d, pivot numver = %d\12\0"
.LC10:
	.ascii "%lf\0"
.LC11:
	.ascii "points read finished.\0"
	.align 8
.LC12:
	.ascii "Euclidean distance calculated.\0"
.LC14:
	.ascii "\12\12qsort() time: %ld ms\12\0"
.LC15:
	.ascii "time cost: %ld ms \12\0"
	.align 8
.LC16:
	.ascii "first 10 elements in the object array:\0"
.LC17:
	.ascii "cost = %lf, values = \0"
.LC18:
	.ascii "%d \0"
	.align 8
.LC19:
	.ascii "last 10 elements in the object array:\0"
.LC20:
	.ascii "w\0"
.LC21:
	.ascii "object.txt\0"
	.section	.text.startup,"x"
	.p2align 4,,15
	.globl	main
	.def	main;	.scl	2;	.type	32;	.endef
	.seh_proc	main
main:
.LVL62:
.LFB5618:
	.loc 1 256 34 is_stmt 1 view -0
	.cfi_startproc
	.loc 1 256 34 is_stmt 0 view .LVU214
	pushq	%r15
	.seh_pushreg	%r15
	.cfi_def_cfa_offset 16
	.cfi_offset 15, -16
	pushq	%r14
	.seh_pushreg	%r14
	.cfi_def_cfa_offset 24
	.cfi_offset 14, -24
	pushq	%r13
	.seh_pushreg	%r13
	.cfi_def_cfa_offset 32
	.cfi_offset 13, -32
	pushq	%r12
	.seh_pushreg	%r12
	.cfi_def_cfa_offset 40
	.cfi_offset 12, -40
	pushq	%rbp
	.seh_pushreg	%rbp
	.cfi_def_cfa_offset 48
	.cfi_offset 6, -48
	pushq	%rdi
	.seh_pushreg	%rdi
	.cfi_def_cfa_offset 56
	.cfi_offset 5, -56
	pushq	%rsi
	.seh_pushreg	%rsi
	.cfi_def_cfa_offset 64
	.cfi_offset 4, -64
	pushq	%rbx
	.seh_pushreg	%rbx
	.cfi_def_cfa_offset 72
	.cfi_offset 3, -72
	subq	$88, %rsp
	.seh_stackalloc	88
	.cfi_def_cfa_offset 160
	.seh_endprologue
	.loc 1 256 34 view .LVU215
	movl	%ecx, %ebx
	movq	%rdx, %rsi
	call	__main
.LVL63:
	.loc 1 257 5 is_stmt 1 view .LVU216
	movl	$6, %ecx
	call	omp_set_num_threads
.LVL64:
	.loc 1 258 5 view .LVU217
	.loc 1 259 5 view .LVU218
.LBB213:
	.loc 1 260 9 view .LVU219
	leaq	.LC4(%rip), %rcx
	call	puts
.LVL65:
	.loc 1 261 9 view .LVU220
	.loc 1 262 9 view .LVU221
	.loc 1 262 12 is_stmt 0 view .LVU222
	cmpl	$2, %ebx
	je	.L158
	.loc 1 264 16 is_stmt 1 view .LVU223
	.loc 1 261 15 is_stmt 0 view .LVU224
	leaq	.LC2(%rip), %rsi
.LVL66:
	.loc 1 264 19 view .LVU225
	subl	$1, %ebx
.LVL67:
	.loc 1 264 19 view .LVU226
	jne	.L159
.LVL68:
.L50:
	.loc 1 268 9 is_stmt 1 view .LVU227
	.loc 1 271 9 view .LVU228
	.loc 1 272 9 view .LVU229
	.loc 1 272 22 is_stmt 0 view .LVU230
	leaq	.LC6(%rip), %rdx
	movq	%rsi, %rcx
	call	fopen
.LVL69:
	.loc 1 273 12 view .LVU231
	testq	%rax, %rax
	.loc 1 272 22 view .LVU232
	movq	%rax, %rbp
.LVL70:
	.loc 1 273 9 is_stmt 1 view .LVU233
	.loc 1 273 12 is_stmt 0 view .LVU234
	je	.L160
	.loc 1 277 9 is_stmt 1 view .LVU235
	leaq	dim(%rip), %r8
	movq	%rax, %rcx
.LBB214:
	.loc 1 288 18 is_stmt 0 view .LVU236
	xorl	%edi, %edi
.LBE214:
	.loc 1 277 9 view .LVU237
	leaq	.LC8(%rip), %rdx
	call	fscanf
.LVL71:
	.loc 1 278 9 is_stmt 1 view .LVU238
	leaq	n(%rip), %r8
	movq	%rbp, %rcx
	leaq	.LC8(%rip), %rdx
	call	fscanf
.LVL72:
	.loc 1 279 9 view .LVU239
	leaq	nums_p(%rip), %r8
	movq	%rbp, %rcx
	leaq	.LC8(%rip), %rdx
	call	fscanf
.LVL73:
	.loc 1 280 9 view .LVU240
	.loc 1 280 11 is_stmt 0 view .LVU241
	movl	nums_p(%rip), %r9d
	.loc 1 281 9 view .LVU242
	leaq	.LC9(%rip), %rcx
	movl	n(%rip), %r8d
.LBB217:
.LBB215:
	.loc 1 290 17 view .LVU243
	leaq	.LC10(%rip), %r12
.LBE215:
.LBE217:
	.loc 1 281 9 view .LVU244
	movl	dim(%rip), %edx
	.loc 1 280 11 view .LVU245
	movl	%r9d, m(%rip)
	.loc 1 281 9 is_stmt 1 view .LVU246
	call	printf
.LVL74:
	.loc 1 285 9 view .LVU247
	.loc 1 285 54 is_stmt 0 view .LVU248
	movslq	n(%rip), %rsi
.LVL75:
	.loc 1 285 54 view .LVU249
	movslq	dim(%rip), %rcx
	movq	%rsi, %r13
	movq	%rcx, %rbx
	imulq	%rsi, %rcx
	.loc 1 285 28 view .LVU250
	salq	$3, %rcx
	call	malloc
.LVL76:
	.loc 1 285 16 view .LVU251
	movq	%rax, points(%rip)
	.loc 1 286 9 is_stmt 1 view .LVU252
	.loc 1 286 76 is_stmt 0 view .LVU253
	movslq	m(%rip), %rax
	imulq	%rsi, %rax
	.loc 1 286 35 view .LVU254
	leaq	(%rax,%rax,2), %rcx
	salq	$4, %rcx
	call	malloc
.LVL77:
.LBB218:
	.loc 1 288 9 view .LVU255
	testl	%esi, %esi
.LBE218:
	.loc 1 286 23 view .LVU256
	movq	%rax, cache_eu_dist(%rip)
	.loc 1 288 9 is_stmt 1 view .LVU257
.LBB219:
	.loc 1 288 14 view .LVU258
.LVL78:
	.loc 1 288 9 is_stmt 0 view .LVU259
	jle	.L54
.LVL79:
	.p2align 4,,10
.L53:
.LBB216:
	.loc 1 289 22 view .LVU260
	xorl	%esi, %esi
	.loc 1 289 13 view .LVU261
	testl	%ebx, %ebx
	jle	.L56
.LVL80:
	.p2align 4,,10
.L55:
	.loc 1 290 17 is_stmt 1 discriminator 3 view .LVU262
	.loc 1 290 47 is_stmt 0 discriminator 3 view .LVU263
	imull	%edi, %ebx
	.loc 1 290 17 discriminator 3 view .LVU264
	movq	points(%rip), %rax
	movq	%r12, %rdx
	movq	%rbp, %rcx
	.loc 1 290 53 discriminator 3 view .LVU265
	addl	%esi, %ebx
	.loc 1 289 39 discriminator 3 view .LVU266
	addl	$1, %esi
.LVL81:
	.loc 1 290 53 discriminator 3 view .LVU267
	movslq	%ebx, %rbx
	.loc 1 290 17 discriminator 3 view .LVU268
	leaq	(%rax,%rbx,8), %r8
	call	fscanf
.LVL82:
	.loc 1 289 31 discriminator 3 view .LVU269
	movl	dim(%rip), %ebx
	.loc 1 289 13 discriminator 3 view .LVU270
	cmpl	%esi, %ebx
	jg	.L55
	movl	n(%rip), %r13d
.LVL83:
.L56:
	.loc 1 289 13 discriminator 3 view .LVU271
.LBE216:
	.loc 1 288 33 discriminator 2 view .LVU272
	addl	$1, %edi
.LVL84:
	.loc 1 288 9 discriminator 2 view .LVU273
	cmpl	%r13d, %edi
	jl	.L53
.LVL85:
.L54:
	.loc 1 288 9 discriminator 2 view .LVU274
.LBE219:
	.loc 1 293 9 is_stmt 1 view .LVU275
	leaq	.LC11(%rip), %rcx
	call	puts
.LVL86:
	.loc 1 294 9 view .LVU276
	movq	%rbp, %rcx
	call	fclose
.LVL87:
	.loc 1 295 9 view .LVU277
	leaq	56(%rsp), %rcx
	call	gettimeofday.constprop.3
.LVL88:
	.loc 1 296 9 view .LVU278
	.loc 1 296 66 is_stmt 0 view .LVU279
	movslq	n(%rip), %rax
	movq	%rax, %rbx
	imulq	%rax, %rax
	.loc 1 296 40 view .LVU280
	leaq	0(,%rax,8), %rcx
	call	malloc
.LVL89:
	.loc 1 297 62 view .LVU281
	movl	m(%rip), %r12d
	.loc 1 296 40 view .LVU282
	movq	%rax, %rsi
	.loc 1 296 28 view .LVU283
	movq	%rax, euclidean_distance(%rip)
	.loc 1 297 9 is_stmt 1 view .LVU284
.LVL90:
.LBB220:
.LBI220:
	.loc 1 119 19 view .LVU285
.LBB221:
	.loc 1 121 5 view .LVU286
	.loc 1 121 17 is_stmt 0 view .LVU287
	movl	__c_n_m(%rip), %eax
	.loc 1 121 8 view .LVU288
	testl	%eax, %eax
	jne	.L57
	movl	%r12d, %edx
	movl	%ebx, %ecx
	call	c_n_m.part.1
.LVL91:
.L57:
	.loc 1 121 8 view .LVU289
.LBE221:
.LBE220:
	.loc 1 297 62 view .LVU290
	movslq	%eax, %rcx
.LBB222:
	.loc 1 299 39 view .LVU291
	movslq	%r12d, %rbp
.LVL92:
	.loc 1 298 18 view .LVU292
	xorl	%r14d, %r14d
.LBE222:
	.loc 1 297 33 view .LVU293
	salq	$4, %rcx
.LBB237:
	.loc 1 299 39 view .LVU294
	salq	$2, %rbp
.LBE237:
	.loc 1 297 33 view .LVU295
	call	malloc
.LVL93:
	movl	n(%rip), %ecx
	leal	1(%r12), %edi
	.loc 1 297 16 view .LVU296
	movq	%rax, object(%rip)
	.loc 1 298 9 is_stmt 1 view .LVU297
.LBB238:
	.loc 1 298 14 view .LVU298
.LVL94:
	.loc 1 298 14 is_stmt 0 view .LVU299
	movq	%rax, %r13
	movl	%ecx, 32(%rsp)
	leal	1(%rcx), %ebx
	.loc 1 298 9 view .LVU300
	jmp	.L58
.LVL95:
	.p2align 4,,10
.L59:
	.loc 1 298 9 view .LVU301
	cmpl	%eax, %r14d
	jge	.L161
.L62:
	.loc 1 299 13 is_stmt 1 discriminator 3 view .LVU302
	.loc 1 299 39 is_stmt 0 discriminator 3 view .LVU303
	movq	%rbp, %rcx
	.loc 1 298 43 discriminator 3 view .LVU304
	addl	$1, %r14d
.LVL96:
	.loc 1 298 43 discriminator 3 view .LVU305
	addq	$16, %r13
	.loc 1 299 39 discriminator 3 view .LVU306
	call	malloc
.LVL97:
	.loc 1 300 28 discriminator 3 view .LVU307
	movq	$0x000000000, -8(%r13)
	.loc 1 299 30 discriminator 3 view .LVU308
	movq	%rax, -16(%r13)
	.loc 1 300 13 is_stmt 1 discriminator 3 view .LVU309
.LVL98:
.L58:
.LBB223:
.LBI223:
	.loc 1 119 19 discriminator 1 view .LVU310
.LBB224:
	.loc 1 121 5 discriminator 1 view .LVU311
	.loc 1 121 17 is_stmt 0 discriminator 1 view .LVU312
	movl	__c_n_m(%rip), %eax
	.loc 1 121 8 discriminator 1 view .LVU313
	testl	%eax, %eax
	jne	.L59
.LVL99:
.LBB225:
.LBB226:
.LBB227:
	.loc 1 123 9 view .LVU314
	testl	%r12d, %r12d
.LBE227:
	.loc 1 122 13 view .LVU315
	movl	$1, %eax
.LBB228:
	.loc 1 123 9 view .LVU316
	jle	.L60
	.loc 1 123 18 view .LVU317
	movl	$1, %ecx
.LVL100:
	.p2align 4,,10
.L61:
	.loc 1 124 13 is_stmt 1 view .LVU318
	.loc 1 124 29 is_stmt 0 view .LVU319
	movl	%ebx, %edx
	subl	%ecx, %edx
	imull	%edx, %eax
.LVL101:
	.loc 1 124 20 view .LVU320
	cltd
	idivl	%ecx
.LVL102:
	.loc 1 123 34 view .LVU321
	addl	$1, %ecx
.LVL103:
	.loc 1 123 9 view .LVU322
	cmpl	%edi, %ecx
	jne	.L61
.LVL104:
.L60:
	.loc 1 123 9 view .LVU323
.LBE228:
	.loc 1 126 9 is_stmt 1 view .LVU324
.LBE226:
.LBE225:
.LBE224:
.LBE223:
	.loc 1 298 9 is_stmt 0 view .LVU325
	cmpl	%eax, %r14d
.LBB235:
.LBB233:
.LBB231:
.LBB229:
	.loc 1 126 17 view .LVU326
	movl	%eax, __c_n_m(%rip)
	.loc 1 127 9 is_stmt 1 view .LVU327
.LVL105:
	.loc 1 127 9 is_stmt 0 view .LVU328
.LBE229:
.LBE231:
.LBE233:
.LBE235:
	.loc 1 298 9 view .LVU329
	jl	.L62
.L161:
.LVL106:
	.loc 1 298 9 view .LVU330
.LBE238:
.LBB239:
.LBB240:
	.loc 1 91 5 view .LVU331
	movl	32(%rsp), %ecx
	testl	%ecx, %ecx
	jle	.L63
.LBB241:
.LBB242:
.LBB243:
.LBB244:
	.loc 1 78 23 view .LVU332
	movl	dim(%rip), %r9d
	movslq	%ecx, %rax
.LBB245:
.LBB246:
.LBB247:
	.loc 1 72 18 view .LVU333
	xorl	%r12d, %r12d
.LBE247:
.LBE246:
.LBE245:
.LBE244:
.LBE243:
.LBE242:
.LBE241:
	.loc 1 91 14 view .LVU334
	xorl	%edi, %edi
.LBB304:
.LBB301:
.LBB298:
.LBB294:
.LBB288:
.LBB258:
.LBB248:
	.loc 1 72 18 view .LVU335
	movq	points(%rip), %r11
	leal	-1(%rcx), %r13d
	salq	$3, %rax
.LBE248:
.LBE258:
.LBE288:
	.loc 1 78 5 view .LVU336
	pxor	%xmm3, %xmm3
	movq	%rax, 40(%rsp)
	movq	%rsi, %rax
	leal	-1(%r9), %r15d
	movl	%r9d, %ebp
	movl	%r9d, %r14d
.LVL107:
	.loc 1 78 5 view .LVU337
	shrl	%ebp
	andl	$-2, %r14d
	salq	$4, %rbp
.LVL108:
	.p2align 4,,10
.L64:
	.loc 1 78 5 view .LVU338
	movslq	%r12d, %rdx
.LBE294:
.LBE298:
.LBE301:
.LBE304:
.LBE240:
.LBE239:
.LBB309:
.LBB236:
.LBB234:
.LBB232:
.LBB230:
	.loc 1 122 13 view .LVU339
	xorl	%r8d, %r8d
	leaq	(%r11,%rdx,8), %r10
	xorl	%edx, %edx
.LVL109:
	.loc 1 122 13 view .LVU340
.LBE230:
.LBE232:
.LBE234:
.LBE236:
.LBE309:
.LBB310:
.LBB307:
.LBB305:
	.loc 1 93 13 is_stmt 1 view .LVU341
	.loc 1 93 16 is_stmt 0 view .LVU342
	cmpl	%edx, %edi
	je	.L162
	.p2align 4,,10
.L65:
	.loc 1 96 17 is_stmt 1 view .LVU343
.LVL110:
.LBB302:
.LBI242:
	.loc 1 76 22 view .LVU344
.LBB299:
	.loc 1 77 5 view .LVU345
	.loc 1 78 5 view .LVU346
.LBB295:
	.loc 1 78 10 view .LVU347
	.loc 1 78 5 is_stmt 0 view .LVU348
	testl	%r9d, %r9d
	jle	.L125
	cmpl	$1, %r15d
	jbe	.L126
	movslq	%r8d, %rcx
.LBB289:
.LBB259:
.LBB260:
	.loc 1 72 22 view .LVU349
	pxor	%xmm1, %xmm1
	leaq	(%r11,%rcx,8), %rbx
	xorl	%ecx, %ecx
.LVL111:
	.p2align 4,,10
.L69:
	.loc 1 72 22 view .LVU350
.LBE260:
.LBE259:
	.loc 1 79 9 is_stmt 1 view .LVU351
.LBB270:
.LBI246:
	.loc 1 70 22 view .LVU352
.LBB249:
	.loc 1 72 5 view .LVU353
	.loc 1 72 5 is_stmt 0 view .LVU354
.LBE249:
.LBE270:
.LBB271:
.LBI259:
	.loc 1 70 22 is_stmt 1 view .LVU355
.LBB261:
	.loc 1 72 5 view .LVU356
	.loc 1 72 5 is_stmt 0 view .LVU357
.LBE261:
.LBE271:
.LBB272:
.LBB250:
	.loc 1 72 18 view .LVU358
	movq	(%r10,%rcx), %xmm0
.LBE250:
.LBE272:
.LBB273:
.LBB262:
	movq	(%rbx,%rcx), %xmm2
.LBE262:
.LBE273:
.LBB274:
.LBB251:
	movhpd	8(%r10,%rcx), %xmm0
.LBE251:
.LBE274:
.LBB275:
.LBB263:
	movhpd	8(%rbx,%rcx), %xmm2
	addq	$16, %rcx
.LBE263:
.LBE275:
	.loc 1 79 16 view .LVU359
	subpd	%xmm2, %xmm0
.LVL112:
	.loc 1 81 9 is_stmt 1 view .LVU360
	cmpq	%rcx, %rbp
	.loc 1 81 21 is_stmt 0 view .LVU361
	mulpd	%xmm0, %xmm0
	.loc 1 81 13 view .LVU362
	addpd	%xmm0, %xmm1
	.loc 1 81 13 view .LVU363
	jne	.L69
	cmpl	%r14d, %r9d
	haddpd	%xmm1, %xmm1
.LBE289:
	.loc 1 78 14 view .LVU364
	movl	%r14d, %ecx
	je	.L70
.L68:
.LVL113:
.LBB290:
	.loc 1 79 9 is_stmt 1 view .LVU365
.LBB276:
	.loc 1 70 22 view .LVU366
.LBB252:
	.loc 1 72 5 view .LVU367
	.loc 1 72 5 is_stmt 0 view .LVU368
.LBE252:
.LBE276:
.LBB277:
	.loc 1 70 22 is_stmt 1 view .LVU369
.LBB264:
	.loc 1 72 5 view .LVU370
	.loc 1 72 5 is_stmt 0 view .LVU371
.LBE264:
.LBE277:
.LBB278:
.LBB253:
	.loc 1 72 28 view .LVU372
	leal	(%r12,%rcx), %esi
.LBE253:
.LBE278:
.LBB279:
.LBB265:
	leal	(%r8,%rcx), %ebx
.LBE265:
.LBE279:
.LBB280:
.LBB254:
	movslq	%esi, %rsi
.LBE254:
.LBE280:
.LBE290:
	.loc 1 78 31 view .LVU373
	addl	$1, %ecx
.LVL114:
.LBB291:
.LBB281:
.LBB266:
	.loc 1 72 28 view .LVU374
	movslq	%ebx, %rbx
.LBE266:
.LBE281:
	.loc 1 79 16 view .LVU375
	movsd	(%r11,%rsi,8), %xmm0
.LBE291:
	.loc 1 78 5 view .LVU376
	cmpl	%ecx, %r9d
.LBB292:
	.loc 1 79 16 view .LVU377
	subsd	(%r11,%rbx,8), %xmm0
.LVL115:
	.loc 1 81 9 is_stmt 1 view .LVU378
	.loc 1 81 21 is_stmt 0 view .LVU379
	mulsd	%xmm0, %xmm0
.LVL116:
	.loc 1 81 13 view .LVU380
	addsd	%xmm0, %xmm1
.LVL117:
	.loc 1 81 13 view .LVU381
.LBE292:
	.loc 1 78 5 view .LVU382
	jle	.L70
.LBB293:
	.loc 1 79 9 is_stmt 1 view .LVU383
.LVL118:
.LBB282:
	.loc 1 70 22 view .LVU384
.LBB255:
	.loc 1 72 5 view .LVU385
	.loc 1 72 5 is_stmt 0 view .LVU386
.LBE255:
.LBE282:
.LBB283:
	.loc 1 70 22 is_stmt 1 view .LVU387
.LBB267:
	.loc 1 72 5 view .LVU388
	.loc 1 72 5 is_stmt 0 view .LVU389
.LBE267:
.LBE283:
.LBB284:
.LBB256:
	.loc 1 72 28 view .LVU390
	leal	(%r12,%rcx), %ebx
.LVL119:
	.loc 1 72 28 view .LVU391
.LBE256:
.LBE284:
.LBB285:
.LBB268:
	addl	%r8d, %ecx
.LVL120:
	.loc 1 72 28 view .LVU392
.LBE268:
.LBE285:
.LBB286:
.LBB257:
	movslq	%ebx, %rbx
.LBE257:
.LBE286:
.LBB287:
.LBB269:
	movslq	%ecx, %rcx
.LBE269:
.LBE287:
	.loc 1 79 16 view .LVU393
	movsd	(%r11,%rbx,8), %xmm0
	subsd	(%r11,%rcx,8), %xmm0
.LVL121:
	.loc 1 81 9 is_stmt 1 view .LVU394
	.loc 1 81 21 is_stmt 0 view .LVU395
	mulsd	%xmm0, %xmm0
.LVL122:
	.loc 1 81 13 view .LVU396
	addsd	%xmm0, %xmm1
.LVL123:
.L70:
	.loc 1 81 13 view .LVU397
	sqrtsd	%xmm1, %xmm1
.L67:
.LBE293:
.LBE295:
	.loc 1 83 5 is_stmt 1 view .LVU398
.LVL124:
	.loc 1 83 5 is_stmt 0 view .LVU399
.LBE299:
.LBE302:
	.loc 1 96 47 view .LVU400
	movsd	%xmm1, (%rax,%rdx,8)
.LVL125:
	.loc 1 96 47 view .LVU401
	leaq	1(%rdx), %rcx
	addl	%r9d, %r8d
	.loc 1 92 9 view .LVU402
	cmpq	%rdx, %r13
	je	.L163
.LVL126:
.L127:
	.loc 1 92 9 view .LVU403
	movq	%rcx, %rdx
.LVL127:
	.loc 1 93 13 is_stmt 1 view .LVU404
	.loc 1 93 16 is_stmt 0 view .LVU405
	cmpl	%edx, %edi
	jne	.L65
.L162:
	.loc 1 94 17 is_stmt 1 view .LVU406
	.loc 1 94 47 is_stmt 0 view .LVU407
	movq	$0x000000000, (%rax,%rdx,8)
.LVL128:
	.loc 1 94 47 view .LVU408
	leaq	1(%rdx), %rcx
	addl	%r9d, %r8d
	.loc 1 92 9 view .LVU409
	cmpq	%rdx, %r13
	jne	.L127
.LVL129:
.L163:
	.loc 1 92 9 view .LVU410
.LBE305:
	.loc 1 91 29 view .LVU411
	addl	$1, %edi
.LVL130:
	.loc 1 91 29 view .LVU412
	addq	40(%rsp), %rax
	addl	%r9d, %r12d
	.loc 1 91 5 view .LVU413
	cmpl	32(%rsp), %edi
	jne	.L64
.LVL131:
.L63:
	.loc 1 91 5 view .LVU414
.LBE307:
.LBE310:
	.loc 1 305 9 is_stmt 1 view .LVU415
	leaq	.LC12(%rip), %rcx
	call	puts
.LVL132:
	.loc 1 306 9 view .LVU416
.LBB311:
.LBI311:
	.loc 1 151 20 view .LVU417
.LBB312:
	.loc 1 153 5 view .LVU418
	.loc 1 153 26 is_stmt 0 view .LVU419
	movslq	m(%rip), %rsi
	movq	%rsi, %r12
	salq	$2, %rsi
	leal	-1(%r12), %ebx
	movq	%rsi, %rcx
	call	malloc
.LVL133:
.LBB313:
	.loc 1 154 5 view .LVU420
	testl	%r12d, %r12d
.LBE313:
	.loc 1 153 26 view .LVU421
	movq	%rax, %r13
.LVL134:
	.loc 1 154 5 is_stmt 1 view .LVU422
.LBB314:
	.loc 1 154 10 view .LVU423
	.loc 1 154 5 is_stmt 0 view .LVU424
	jle	.L78
	cmpl	$2, %ebx
	jbe	.L128
	movl	%r12d, %edx
	movdqa	.LC3(%rip), %xmm0
	shrl	$2, %edx
	movdqa	.LC13(%rip), %xmm1
	salq	$4, %rdx
	addq	%rax, %rdx
.LVL135:
	.p2align 4,,10
.L76:
	.loc 1 155 9 is_stmt 1 view .LVU425
	.loc 1 155 19 is_stmt 0 view .LVU426
	movups	%xmm0, (%rax)
	.loc 1 155 19 view .LVU427
	addq	$16, %rax
	paddd	%xmm1, %xmm0
	cmpq	%rax, %rdx
	jne	.L76
	movl	%r12d, %eax
	andl	$-4, %eax
	cmpl	%eax, %r12d
	je	.L78
.L75:
.LVL136:
	.loc 1 155 9 is_stmt 1 view .LVU428
	.loc 1 155 15 is_stmt 0 view .LVU429
	movslq	%eax, %rdx
	.loc 1 155 19 view .LVU430
	movl	%eax, 0(%r13,%rdx,4)
	.loc 1 154 29 view .LVU431
	leal	1(%rax), %edx
.LVL137:
	.loc 1 154 5 view .LVU432
	cmpl	%edx, %r12d
	jle	.L78
	.loc 1 155 9 is_stmt 1 view .LVU433
	.loc 1 154 29 is_stmt 0 view .LVU434
	addl	$2, %eax
	.loc 1 155 15 view .LVU435
	movslq	%edx, %rcx
	.loc 1 154 5 view .LVU436
	cmpl	%eax, %r12d
	.loc 1 155 19 view .LVU437
	movl	%edx, 0(%r13,%rcx,4)
.LVL138:
	.loc 1 154 5 view .LVU438
	jle	.L78
	.loc 1 155 9 is_stmt 1 view .LVU439
	.loc 1 155 15 is_stmt 0 view .LVU440
	movslq	%eax, %rdx
	.loc 1 155 19 view .LVU441
	movl	%eax, 0(%r13,%rdx,4)
.L78:
	.loc 1 155 19 view .LVU442
	leaq	-4(%r13,%rsi), %rsi
.LBE314:
.LBB315:
	.loc 1 164 32 view .LVU443
	movslq	%ebx, %rax
	movl	n(%rip), %ecx
.LVL139:
	.loc 1 164 32 view .LVU444
	salq	$2, %rax
.LBE315:
	.loc 1 158 11 view .LVU445
	cmpl	%ecx, (%rsi)
.LBB322:
.LBB316:
	.loc 1 160 19 view .LVU446
	movq	object(%rip), %r14
.LBE316:
	.loc 1 164 32 view .LVU447
	leaq	0(%r13,%rax), %rdi
.LBE322:
	.loc 1 158 11 view .LVU448
	jge	.L73
	leaq	-4(%r13,%rax), %rbp
.LBB323:
.LBB317:
	.loc 1 160 40 view .LVU449
	movl	%ebx, %edx
	leaq	4(,%rdx,4), %rdx
	movq	%rdx, 32(%rsp)
.LVL140:
	.p2align 4,,10
.L74:
	.loc 1 159 9 view .LVU450
	testl	%r12d, %r12d
	jle	.L88
	movq	(%r14), %rcx
	movq	%r13, %rdx
	movq	32(%rsp), %r8
	call	memcpy
.LVL141:
	movl	n(%rip), %ecx
.L88:
	.loc 1 159 9 view .LVU451
.LBE317:
	.loc 1 162 9 is_stmt 1 view .LVU452
	.loc 1 163 9 view .LVU453
.LVL142:
	.loc 1 164 9 view .LVU454
	.loc 1 164 15 is_stmt 0 view .LVU455
	testl	%ebx, %ebx
	je	.L80
	.loc 1 164 32 view .LVU456
	movl	(%rdi), %eax
	.loc 1 164 45 view .LVU457
	leal	-1(%rcx), %edx
	.loc 1 164 41 view .LVU458
	movl	%ecx, %r15d
	subl	%r12d, %r15d
	.loc 1 164 23 view .LVU459
	cmpl	%edx, %eax
	jne	.L81
	movq	%rbp, %rax
	movl	%ebx, %edx
	jmp	.L84
.LVL143:
	.p2align 4,,10
.L82:
	.loc 1 164 32 view .LVU460
	movl	(%rax), %r9d
	leal	(%r15,%r8), %r10d
	movq	%rax, %r11
	subq	$4, %rax
	.loc 1 164 23 view .LVU461
	cmpl	%r10d, %r9d
	jne	.L83
	.loc 1 164 23 view .LVU462
	movl	%r8d, %edx
.LVL144:
.L84:
	.loc 1 165 13 is_stmt 1 view .LVU463
	.loc 1 164 15 is_stmt 0 view .LVU464
	movl	%edx, %r8d
	subl	$1, %r8d
.LVL145:
	.loc 1 164 15 view .LVU465
	jne	.L82
	movl	0(%r13), %r9d
	movq	%r13, %r11
	movl	$1, %edx
.L83:
	.loc 1 167 9 is_stmt 1 view .LVU466
	.loc 1 167 18 is_stmt 0 view .LVU467
	addl	$1, %r9d
.LBB318:
	.loc 1 168 9 view .LVU468
	cmpl	%edx, %r12d
.LBE318:
	.loc 1 167 18 view .LVU469
	movl	%r9d, (%r11)
	.loc 1 168 9 is_stmt 1 view .LVU470
.LBB319:
	.loc 1 168 14 view .LVU471
.LVL146:
	.loc 1 168 9 is_stmt 0 view .LVU472
	jle	.L85
	movslq	%edx, %rax
	.loc 1 169 23 view .LVU473
	movl	$1, %r8d
.LVL147:
	.loc 1 169 23 view .LVU474
	subl	%edx, %r8d
	addl	-4(%r13,%rax,4), %r8d
	.p2align 4,,10
.L86:
.LVL148:
	.loc 1 169 13 is_stmt 1 view .LVU475
	.loc 1 169 23 is_stmt 0 view .LVU476
	leal	(%r8,%rax), %edx
	movl	%edx, 0(%r13,%rax,4)
.LVL149:
	.loc 1 169 23 view .LVU477
	addq	$1, %rax
.LVL150:
	.loc 1 168 9 view .LVU478
	cmpl	%eax, %r12d
	jg	.L86
.L85:
	.loc 1 168 9 view .LVU479
	addq	$16, %r14
.LBE319:
.LBE323:
	.loc 1 158 11 view .LVU480
	cmpl	%ecx, (%rsi)
	jl	.L74
.LVL151:
.L73:
	.loc 1 158 11 view .LVU481
.LBE312:
.LBE311:
	.loc 1 309 9 is_stmt 1 view .LVU482
.LBB328:
.LBI328:
	.loc 1 119 19 view .LVU483
.LBB329:
	.loc 1 121 5 view .LVU484
	.loc 1 121 17 is_stmt 0 view .LVU485
	movl	__c_n_m(%rip), %eax
	.loc 1 121 8 view .LVU486
	testl	%eax, %eax
	jne	.L89
	movl	%r12d, %edx
	call	c_n_m.part.1
.LVL152:
.L89:
	.loc 1 121 8 view .LVU487
	leaq	72(%rsp), %rsi
	xorl	%r9d, %r9d
.LBE329:
.LBE328:
.LBB330:
	.loc 1 311 9 view .LVU488
	movl	%eax, 72(%rsp)
	movl	$6, %r8d
	leaq	main._omp_fn.0(%rip), %rcx
	movq	%rsi, %rdx
	call	GOMP_parallel
.LVL153:
	.loc 1 311 9 view .LVU489
.LBE330:
	.loc 1 335 9 is_stmt 1 view .LVU490
.LBB331:
.LBI331:
	.loc 1 187 20 view .LVU491
	.loc 1 187 20 is_stmt 0 view .LVU492
.LBE331:
.LBE213:
	.loc 1 190 5 is_stmt 1 view .LVU493
.LBB419:
.LBB336:
.LBB332:
	.loc 1 192 9 view .LVU494
.LBB333:
.LBI333:
	.loc 1 119 19 view .LVU495
.LBB334:
	.loc 1 121 5 view .LVU496
	.loc 1 121 17 is_stmt 0 view .LVU497
	movl	__c_n_m(%rip), %ebx
	.loc 1 121 8 view .LVU498
	testl	%ebx, %ebx
	jne	.L90
	movl	m(%rip), %edx
	movl	n(%rip), %ecx
	call	c_n_m.part.1
.LVL154:
	.loc 1 121 8 view .LVU499
	movl	%eax, %ebx
.L90:
.LVL155:
	.loc 1 121 8 view .LVU500
.LBE334:
.LBE333:
	.loc 1 193 9 is_stmt 1 view .LVU501
	.loc 1 194 9 view .LVU502
	leaq	64(%rsp), %rcx
	call	gettimeofday.constprop.3
.LVL156:
	.loc 1 195 9 view .LVU503
	movslq	%ebx, %rdx
	movq	object(%rip), %rcx
	movl	$16, %r8d
	leaq	compare_2_combinations(%rip), %r9
	.loc 1 199 50 is_stmt 0 view .LVU504
	movl	$274877907, %ebx
.LVL157:
	.loc 1 199 50 view .LVU505
.LBE332:
.LBE336:
.LBB337:
.LBB338:
.LBB339:
	.loc 1 214 9 view .LVU506
	leaq	.LC17(%rip), %rbp
.LBB340:
	.loc 1 216 13 view .LVU507
	leaq	.LC18(%rip), %rdi
.LBE340:
.LBE339:
.LBE338:
.LBE337:
.LBB377:
.LBB335:
	.loc 1 195 9 view .LVU508
	call	qsort
.LVL158:
	.loc 1 196 9 is_stmt 1 view .LVU509
	movq	%rsi, %rcx
	call	gettimeofday.constprop.3
.LVL159:
	.loc 1 197 9 view .LVU510
	.loc 1 199 33 is_stmt 0 view .LVU511
	movl	76(%rsp), %r8d
	subl	68(%rsp), %r8d
	.loc 1 198 28 view .LVU512
	movl	72(%rsp), %ecx
	subl	64(%rsp), %ecx
	.loc 1 199 50 view .LVU513
	movl	%r8d, %eax
	sarl	$31, %r8d
	imull	%ebx
	.loc 1 198 44 view .LVU514
	imull	$1000, %ecx, %ecx
	.loc 1 199 50 view .LVU515
	sarl	$6, %edx
	subl	%r8d, %edx
	.loc 1 197 9 view .LVU516
	addl	%ecx, %edx
	leaq	.LC14(%rip), %rcx
	call	printf
.LVL160:
	.loc 1 197 9 view .LVU517
.LBE335:
.LBE377:
	.loc 1 338 9 is_stmt 1 view .LVU518
	movq	%rsi, %rcx
.LBB378:
.LBB374:
	.loc 1 212 5 is_stmt 0 view .LVU519
	xorl	%esi, %esi
.LBE374:
.LBE378:
	.loc 1 338 9 view .LVU520
	call	gettimeofday.constprop.3
.LVL161:
	.loc 1 339 9 is_stmt 1 view .LVU521
	.loc 1 341 33 is_stmt 0 view .LVU522
	movl	76(%rsp), %r8d
	subl	60(%rsp), %r8d
	.loc 1 340 28 view .LVU523
	movl	72(%rsp), %ecx
	subl	56(%rsp), %ecx
	.loc 1 341 50 view .LVU524
	movl	%r8d, %eax
	sarl	$31, %r8d
	imull	%ebx
	.loc 1 340 44 view .LVU525
	imull	$1000, %ecx, %ecx
	.loc 1 341 50 view .LVU526
	movl	%edx, %ebx
	sarl	$6, %ebx
	subl	%r8d, %ebx
	.loc 1 339 9 view .LVU527
	leal	(%rcx,%rbx), %edx
	leaq	.LC15(%rip), %rcx
	call	printf
.LVL162:
	.loc 1 342 9 is_stmt 1 view .LVU528
.LBB379:
.LBI337:
	.loc 1 207 20 view .LVU529
.LBB375:
	.loc 1 212 5 view .LVU530
	leaq	.LC16(%rip), %rcx
	call	puts
.LVL163:
	.loc 1 213 5 view .LVU531
.LBB343:
	.loc 1 213 10 view .LVU532
	.p2align 4,,10
.L92:
	.loc 1 214 9 view .LVU533
	movq	object(%rip), %rax
	movq	%rbp, %rcx
.LBB341:
	.loc 1 215 9 is_stmt 0 view .LVU534
	xorl	%ebx, %ebx
.LBE341:
	.loc 1 214 9 view .LVU535
	movsd	8(%rax,%rsi), %xmm0
	movapd	%xmm0, %xmm1
	movq	%xmm0, %rdx
	call	printf
.LVL164:
	.loc 1 215 9 is_stmt 1 view .LVU536
.LBB342:
	.loc 1 215 14 view .LVU537
	.loc 1 215 9 is_stmt 0 view .LVU538
	movl	m(%rip), %ecx
	testl	%ecx, %ecx
	jle	.L94
.LVL165:
	.p2align 4,,10
.L91:
	.loc 1 216 13 is_stmt 1 view .LVU539
	.loc 1 216 36 is_stmt 0 view .LVU540
	movq	object(%rip), %rax
	.loc 1 216 13 view .LVU541
	movq	%rdi, %rcx
	movq	(%rax,%rsi), %rax
	movl	(%rax,%rbx,4), %edx
	addq	$1, %rbx
.LVL166:
	.loc 1 216 13 view .LVU542
	call	printf
.LVL167:
	.loc 1 215 9 view .LVU543
	cmpl	%ebx, m(%rip)
	jg	.L91
.L94:
	.loc 1 215 9 view .LVU544
.LBE342:
	.loc 1 218 9 is_stmt 1 view .LVU545
	movl	$10, %ecx
	addq	$16, %rsi
	call	putchar
.LVL168:
	.loc 1 213 5 is_stmt 0 view .LVU546
	cmpq	$160, %rsi
	jne	.L92
.LBE343:
	.loc 1 221 5 is_stmt 1 view .LVU547
	leaq	.LC19(%rip), %rcx
	call	puts
.LVL169:
	.loc 1 222 5 view .LVU548
.LBB344:
	.loc 1 222 10 view .LVU549
.LBB345:
.LBB346:
	.loc 1 121 17 is_stmt 0 view .LVU550
	movl	__c_n_m(%rip), %eax
.LBE346:
.LBE345:
	.loc 1 222 18 view .LVU551
	movl	m(%rip), %r10d
.LVL170:
.LBB348:
.LBI345:
	.loc 1 119 19 is_stmt 1 view .LVU552
.LBB347:
	.loc 1 121 5 view .LVU553
	.loc 1 121 8 is_stmt 0 view .LVU554
	testl	%eax, %eax
	.loc 1 121 17 view .LVU555
	movl	%eax, %ebp
	.loc 1 121 8 view .LVU556
	jne	.L95
	movl	n(%rip), %ecx
	movl	%r10d, %edx
	call	c_n_m.part.1
.LVL171:
	.loc 1 121 8 view .LVU557
	movl	%eax, %ebp
	movl	__c_n_m(%rip), %eax
.L95:
.LVL172:
	.loc 1 121 8 view .LVU558
.LBE347:
.LBE348:
	.loc 1 223 9 view .LVU559
	leaq	.LC17(%rip), %r12
	.loc 1 222 14 view .LVU560
	subl	$10, %ebp
.LVL173:
.LBB349:
	.loc 1 225 13 view .LVU561
	leaq	.LC18(%rip), %rdi
.LVL174:
	.loc 1 225 13 view .LVU562
.LBE349:
.LBB350:
.LBI350:
	.loc 1 119 19 is_stmt 1 view .LVU563
.LBB351:
	.loc 1 121 5 view .LVU564
	movslq	%ebp, %rsi
	salq	$4, %rsi
	.loc 1 121 8 is_stmt 0 view .LVU565
	testl	%eax, %eax
	je	.L164
	.p2align 4,,10
.L99:
.LVL175:
	.loc 1 121 8 view .LVU566
.LBE351:
.LBE350:
	.loc 1 222 5 view .LVU567
	cmpl	%eax, %ebp
	jge	.L165
.L102:
	.loc 1 223 9 is_stmt 1 view .LVU568
	movq	object(%rip), %rax
	movq	%r12, %rcx
.LBB367:
	.loc 1 224 9 is_stmt 0 view .LVU569
	xorl	%ebx, %ebx
.LBE367:
	.loc 1 223 9 view .LVU570
	movsd	8(%rax,%rsi), %xmm0
	movq	%xmm0, %rdx
	movapd	%xmm0, %xmm1
	call	printf
.LVL176:
	.loc 1 224 9 is_stmt 1 view .LVU571
.LBB368:
	.loc 1 224 14 view .LVU572
	.loc 1 224 9 is_stmt 0 view .LVU573
	movl	m(%rip), %edx
	testl	%edx, %edx
	jle	.L98
.LVL177:
	.p2align 4,,10
.L97:
	.loc 1 225 13 is_stmt 1 view .LVU574
	.loc 1 225 36 is_stmt 0 view .LVU575
	movq	object(%rip), %rax
	.loc 1 225 13 view .LVU576
	movq	%rdi, %rcx
	movq	(%rax,%rsi), %rax
	movl	(%rax,%rbx,4), %edx
	addq	$1, %rbx
.LVL178:
	.loc 1 225 13 view .LVU577
	call	printf
.LVL179:
	.loc 1 224 9 view .LVU578
	cmpl	%ebx, m(%rip)
	jg	.L97
.L98:
	.loc 1 224 9 view .LVU579
.LBE368:
	.loc 1 227 9 is_stmt 1 view .LVU580
	movl	$10, %ecx
	.loc 1 222 54 is_stmt 0 view .LVU581
	addl	$1, %ebp
.LVL180:
	.loc 1 222 54 view .LVU582
	addq	$16, %rsi
	.loc 1 227 9 view .LVU583
	call	putchar
.LVL181:
	.loc 1 227 9 view .LVU584
	movl	__c_n_m(%rip), %eax
.LVL182:
.LBB369:
	.loc 1 119 19 is_stmt 1 view .LVU585
.LBB363:
	.loc 1 121 5 view .LVU586
	movl	m(%rip), %r10d
	.loc 1 121 8 is_stmt 0 view .LVU587
	testl	%eax, %eax
	jne	.L99
.L164:
.LBB352:
.LBB353:
.LBB354:
	.loc 1 123 9 view .LVU588
	testl	%r10d, %r10d
.LBE354:
.LBE353:
.LBE352:
.LBE363:
.LBE369:
	.loc 1 222 40 view .LVU589
	movl	n(%rip), %edx
.LVL183:
.LBB370:
.LBB364:
.LBB360:
.LBB357:
.LBB355:
	.loc 1 123 9 view .LVU590
	jle	.L132
	leal	1(%r10), %r8d
.LBE355:
	.loc 1 122 13 view .LVU591
	movl	$1, %eax
.LBB356:
	.loc 1 123 18 view .LVU592
	movl	$1, %ecx
	leal	1(%rdx), %r9d
.LVL184:
	.p2align 4,,10
.L101:
	.loc 1 124 13 is_stmt 1 view .LVU593
	.loc 1 124 29 is_stmt 0 view .LVU594
	movl	%r9d, %edx
	subl	%ecx, %edx
	imull	%edx, %eax
.LVL185:
	.loc 1 124 20 view .LVU595
	cltd
	idivl	%ecx
.LVL186:
	.loc 1 123 34 view .LVU596
	addl	$1, %ecx
.LVL187:
	.loc 1 123 9 view .LVU597
	cmpl	%r8d, %ecx
	jne	.L101
.LVL188:
.L100:
	.loc 1 123 9 view .LVU598
.LBE356:
	.loc 1 126 9 is_stmt 1 view .LVU599
.LBE357:
.LBE360:
.LBE364:
.LBE370:
	.loc 1 222 5 is_stmt 0 view .LVU600
	cmpl	%eax, %ebp
.LBB371:
.LBB365:
.LBB361:
.LBB358:
	.loc 1 126 17 view .LVU601
	movl	%eax, __c_n_m(%rip)
	.loc 1 127 9 is_stmt 1 view .LVU602
.LVL189:
	.loc 1 127 9 is_stmt 0 view .LVU603
.LBE358:
.LBE361:
.LBE365:
.LBE371:
	.loc 1 222 5 view .LVU604
	jl	.L102
.L165:
.LVL190:
	.loc 1 222 5 view .LVU605
.LBE344:
.LBE375:
.LBE379:
	.loc 1 343 9 is_stmt 1 view .LVU606
.LBB380:
.LBI380:
	.loc 1 231 20 view .LVU607
.LBB381:
	.loc 1 232 5 view .LVU608
	.loc 1 232 16 is_stmt 0 view .LVU609
	leaq	.LC20(%rip), %rdx
	leaq	.LC21(%rip), %rcx
	call	fopen
.LVL191:
	.loc 1 234 15 view .LVU610
	movl	m(%rip), %r10d
	.loc 1 232 16 view .LVU611
	movq	%rax, %rsi
.LVL192:
	.loc 1 234 5 is_stmt 1 view .LVU612
.LBB382:
.LBI382:
	.loc 1 119 19 view .LVU613
.LBB383:
	.loc 1 121 5 view .LVU614
	.loc 1 121 17 is_stmt 0 view .LVU615
	movl	__c_n_m(%rip), %eax
.LVL193:
	.loc 1 121 8 view .LVU616
	testl	%eax, %eax
	jne	.L103
	movl	n(%rip), %ecx
	movl	%r10d, %edx
	call	c_n_m.part.1
.LVL194:
.L103:
	.loc 1 121 8 view .LVU617
.LBE383:
.LBE382:
	.loc 1 235 5 is_stmt 1 view .LVU618
.LBB384:
	.loc 1 235 10 view .LVU619
	.loc 1 235 14 is_stmt 0 view .LVU620
	leal	-1(%rax), %edi
.LVL195:
.LBB385:
	.loc 1 237 13 view .LVU621
	leaq	.LC8(%rip), %rbp
	movslq	%edi, %rdi
	.loc 1 237 13 view .LVU622
	salq	$4, %rdi
.LVL196:
	.loc 1 237 13 view .LVU623
	leaq	-16000(%rdi), %r12
.LVL197:
	.p2align 4,,10
.L104:
	.loc 1 236 9 view .LVU624
	xorl	%ebx, %ebx
	testl	%r10d, %r10d
	jle	.L107
.LVL198:
	.p2align 4,,10
.L109:
	.loc 1 237 13 is_stmt 1 view .LVU625
	.loc 1 237 40 is_stmt 0 view .LVU626
	movq	object(%rip), %rax
	.loc 1 237 13 view .LVU627
	movq	%rbp, %rdx
	movq	%rsi, %rcx
	movq	(%rax,%rdi), %rax
	movl	(%rax,%rbx,4), %r8d
	call	fprintf
.LVL199:
	.loc 1 238 13 is_stmt 1 view .LVU628
	.loc 1 238 24 is_stmt 0 view .LVU629
	movl	m(%rip), %eax
	leal	-1(%rax), %edx
	.loc 1 238 16 view .LVU630
	cmpl	%ebx, %edx
	je	.L105
	.loc 1 239 17 is_stmt 1 view .LVU631
	movq	%rsi, %rdx
	movl	$32, %ecx
	addq	$1, %rbx
.LVL200:
	.loc 1 239 17 is_stmt 0 view .LVU632
	call	fputc
.LVL201:
	.loc 1 236 9 view .LVU633
	cmpl	%ebx, m(%rip)
	jg	.L109
.L107:
	.loc 1 236 9 view .LVU634
.LBE385:
	.loc 1 242 9 is_stmt 1 view .LVU635
	movq	%rsi, %rdx
	movl	$10, %ecx
	subq	$16, %rdi
	call	fputc
.LVL202:
	.loc 1 235 5 is_stmt 0 view .LVU636
	cmpq	%rdi, %r12
	je	.L133
	movl	m(%rip), %r10d
	jmp	.L104
.LVL203:
	.p2align 4,,10
.L125:
	.loc 1 235 5 view .LVU637
.LBE384:
.LBE381:
.LBE380:
.LBB397:
.LBB308:
.LBB306:
.LBB303:
.LBB300:
.LBB296:
	.loc 1 78 5 view .LVU638
	movapd	%xmm3, %xmm1
	jmp	.L67
	.p2align 4,,10
.L126:
.LBE296:
	.loc 1 77 12 view .LVU639
	pxor	%xmm1, %xmm1
.LBB297:
	.loc 1 78 14 view .LVU640
	xorl	%ecx, %ecx
	jmp	.L68
.LVL204:
	.p2align 4,,10
.L105:
	.loc 1 78 14 view .LVU641
	addq	$1, %rbx
.LVL205:
	.loc 1 78 14 view .LVU642
.LBE297:
.LBE300:
.LBE303:
.LBE306:
.LBE308:
.LBE397:
.LBB398:
.LBB395:
.LBB387:
.LBB386:
	.loc 1 236 9 view .LVU643
	cmpl	%ebx, %eax
	jg	.L109
	jmp	.L107
	.p2align 4,,10
.L133:
	.loc 1 236 9 view .LVU644
.LBE386:
.LBE387:
.LBB388:
.LBB389:
	.loc 1 247 13 view .LVU645
	leaq	.LC8(%rip), %rbp
.LBE389:
.LBE388:
.LBB392:
	.loc 1 235 5 view .LVU646
	xorl	%edi, %edi
	.p2align 4,,10
.L108:
.LVL206:
	.loc 1 235 5 view .LVU647
.LBE392:
.LBB393:
.LBB390:
	.loc 1 246 9 view .LVU648
	movl	m(%rip), %eax
	xorl	%ebx, %ebx
	testl	%eax, %eax
	jle	.L112
.LVL207:
	.p2align 4,,10
.L114:
	.loc 1 247 13 is_stmt 1 view .LVU649
	.loc 1 247 40 is_stmt 0 view .LVU650
	movq	object(%rip), %rax
	.loc 1 247 13 view .LVU651
	movq	%rbp, %rdx
	movq	%rsi, %rcx
	movq	(%rax,%rdi), %rax
	movl	(%rax,%rbx,4), %r8d
	call	fprintf
.LVL208:
	.loc 1 248 13 is_stmt 1 view .LVU652
	.loc 1 248 24 is_stmt 0 view .LVU653
	movl	m(%rip), %eax
	leal	-1(%rax), %edx
	.loc 1 248 16 view .LVU654
	cmpl	%ebx, %edx
	je	.L110
	.loc 1 249 17 is_stmt 1 view .LVU655
	movq	%rsi, %rdx
	movl	$32, %ecx
	addq	$1, %rbx
.LVL209:
	.loc 1 249 17 is_stmt 0 view .LVU656
	call	fputc
.LVL210:
	.loc 1 246 9 view .LVU657
	cmpl	%ebx, m(%rip)
	jg	.L114
.L112:
	.loc 1 246 9 view .LVU658
.LBE390:
	.loc 1 252 9 is_stmt 1 view .LVU659
	movq	%rsi, %rdx
	movl	$10, %ecx
	addq	$16, %rdi
	call	fputc
.LVL211:
	.loc 1 245 5 is_stmt 0 view .LVU660
	cmpq	$16000, %rdi
	jne	.L108
.LVL212:
	.loc 1 245 5 view .LVU661
.LBE393:
.LBE395:
.LBE398:
	.loc 1 344 9 is_stmt 1 view .LVU662
	movq	points(%rip), %rcx
.LBB399:
	.loc 1 346 18 is_stmt 0 view .LVU663
	xorl	%ebp, %ebp
.LBE399:
	.loc 1 344 9 view .LVU664
	call	free
.LVL213:
	.loc 1 345 9 is_stmt 1 view .LVU665
	movq	euclidean_distance(%rip), %rcx
	call	free
.LVL214:
	.loc 1 346 9 view .LVU666
.LBB414:
	.loc 1 346 14 view .LVU667
	.loc 1 346 14 is_stmt 0 view .LVU668
	movq	object(%rip), %rdi
	movl	m(%rip), %esi
	movq	%rdi, %r12
	leal	1(%rsi), %ebx
	.loc 1 346 9 view .LVU669
	jmp	.L115
.LVL215:
	.p2align 4,,10
.L116:
	.loc 1 346 9 view .LVU670
	cmpl	%eax, %ebp
	jge	.L166
.L119:
	.loc 1 347 13 is_stmt 1 discriminator 3 view .LVU671
	movq	(%r12), %rcx
	.loc 1 346 43 is_stmt 0 discriminator 3 view .LVU672
	addl	$1, %ebp
.LVL216:
	.loc 1 346 43 discriminator 3 view .LVU673
	addq	$16, %r12
	.loc 1 347 13 discriminator 3 view .LVU674
	call	free
.LVL217:
.L115:
.LBB400:
.LBI400:
	.loc 1 119 19 is_stmt 1 discriminator 1 view .LVU675
.LBB401:
	.loc 1 121 5 discriminator 1 view .LVU676
	.loc 1 121 17 is_stmt 0 discriminator 1 view .LVU677
	movl	__c_n_m(%rip), %eax
	.loc 1 121 8 discriminator 1 view .LVU678
	testl	%eax, %eax
	jne	.L116
.LBB402:
.LBB403:
.LBB404:
	.loc 1 123 9 view .LVU679
	testl	%esi, %esi
.LBE404:
.LBE403:
.LBE402:
.LBE401:
.LBE400:
	.loc 1 346 29 view .LVU680
	movl	n(%rip), %edx
.LVL218:
.LBB412:
.LBB410:
.LBB408:
.LBB406:
	.loc 1 122 13 view .LVU681
	movl	$1, %eax
.LBB405:
	.loc 1 123 9 view .LVU682
	jle	.L117
	leal	1(%rdx), %r8d
	.loc 1 123 18 view .LVU683
	movl	$1, %ecx
.LVL219:
	.p2align 4,,10
.L118:
	.loc 1 124 13 is_stmt 1 view .LVU684
	.loc 1 124 29 is_stmt 0 view .LVU685
	movl	%r8d, %edx
	subl	%ecx, %edx
	imull	%edx, %eax
.LVL220:
	.loc 1 124 20 view .LVU686
	cltd
	idivl	%ecx
.LVL221:
	.loc 1 123 34 view .LVU687
	addl	$1, %ecx
.LVL222:
	.loc 1 123 9 view .LVU688
	cmpl	%ebx, %ecx
	jne	.L118
.LVL223:
.L117:
	.loc 1 123 9 view .LVU689
.LBE405:
	.loc 1 126 9 is_stmt 1 view .LVU690
.LBE406:
.LBE408:
.LBE410:
.LBE412:
	.loc 1 346 9 is_stmt 0 view .LVU691
	cmpl	%eax, %ebp
.LBB413:
.LBB411:
.LBB409:
.LBB407:
	.loc 1 126 17 view .LVU692
	movl	%eax, __c_n_m(%rip)
	.loc 1 127 9 is_stmt 1 view .LVU693
.LVL224:
	.loc 1 127 9 is_stmt 0 view .LVU694
.LBE407:
.LBE409:
.LBE411:
.LBE413:
	.loc 1 346 9 view .LVU695
	jl	.L119
.L166:
	.loc 1 346 9 view .LVU696
.LBE414:
	.loc 1 349 9 is_stmt 1 view .LVU697
	movq	%rdi, %rcx
	call	free
.LVL225:
	.loc 1 350 9 view .LVU698
	movq	cache_eu_dist(%rip), %rcx
	call	free
.LVL226:
.LBE419:
	.loc 1 368 5 view .LVU699
	.loc 1 368 12 is_stmt 0 view .LVU700
	xorl	%eax, %eax
.LVL227:
.L48:
	.loc 1 369 1 view .LVU701
	addq	$88, %rsp
	.cfi_remember_state
	.cfi_def_cfa_offset 72
	popq	%rbx
	.cfi_restore 3
	.cfi_def_cfa_offset 64
	popq	%rsi
	.cfi_restore 4
	.cfi_def_cfa_offset 56
	popq	%rdi
	.cfi_restore 5
	.cfi_def_cfa_offset 48
	popq	%rbp
	.cfi_restore 6
	.cfi_def_cfa_offset 40
	popq	%r12
	.cfi_restore 12
	.cfi_def_cfa_offset 32
	popq	%r13
	.cfi_restore 13
	.cfi_def_cfa_offset 24
	popq	%r14
	.cfi_restore 14
	.cfi_def_cfa_offset 16
	popq	%r15
	.cfi_restore 15
	.cfi_def_cfa_offset 8
	ret
.LVL228:
	.p2align 4,,10
.L110:
	.cfi_restore_state
	.loc 1 369 1 view .LVU702
	addq	$1, %rbx
.LVL229:
.LBB420:
.LBB415:
.LBB396:
.LBB394:
.LBB391:
	.loc 1 246 9 view .LVU703
	cmpl	%ebx, %eax
	jg	.L114
	jmp	.L112
.LVL230:
.L80:
	.loc 1 246 9 view .LVU704
.LBE391:
.LBE394:
.LBE396:
.LBE415:
.LBB416:
.LBB326:
.LBB324:
	.loc 1 167 9 is_stmt 1 view .LVU705
	.loc 1 167 18 is_stmt 0 view .LVU706
	addl	$1, 0(%r13)
	.loc 1 168 9 is_stmt 1 view .LVU707
.LBB320:
	.loc 1 168 14 view .LVU708
.LVL231:
	.loc 1 168 14 is_stmt 0 view .LVU709
	jmp	.L85
.LVL232:
.L81:
	.loc 1 168 14 view .LVU710
.LBE320:
	.loc 1 167 9 is_stmt 1 view .LVU711
	.loc 1 167 18 is_stmt 0 view .LVU712
	addl	$1, %eax
	movl	%eax, (%rdi)
	.loc 1 168 9 is_stmt 1 view .LVU713
.LBB321:
	.loc 1 168 14 view .LVU714
	.loc 1 168 14 is_stmt 0 view .LVU715
	jmp	.L85
.LVL233:
.L158:
	.loc 1 168 14 view .LVU716
.LBE321:
.LBE324:
.LBE326:
.LBE416:
	.loc 1 263 13 is_stmt 1 view .LVU717
	.loc 1 263 22 is_stmt 0 view .LVU718
	movq	8(%rsi), %rsi
.LVL234:
	.loc 1 263 22 view .LVU719
	jmp	.L50
.LVL235:
.L132:
.LBB417:
.LBB376:
.LBB373:
.LBB372:
.LBB366:
.LBB362:
.LBB359:
	.loc 1 122 13 view .LVU720
	movl	$1, %eax
	jmp	.L100
.LVL236:
.L128:
	.loc 1 122 13 view .LVU721
.LBE359:
.LBE362:
.LBE366:
.LBE372:
.LBE373:
.LBE376:
.LBE417:
.LBB418:
.LBB327:
.LBB325:
	.loc 1 154 14 view .LVU722
	xorl	%eax, %eax
.LVL237:
	.loc 1 154 14 view .LVU723
	jmp	.L75
.LVL238:
.L160:
	.loc 1 154 14 view .LVU724
.LBE325:
.LBE327:
.LBE418:
	.loc 1 274 13 is_stmt 1 view .LVU725
	leaq	.LC7(%rip), %rcx
	movq	%rsi, %rdx
	call	printf
.LVL239:
	.loc 1 275 13 view .LVU726
.L51:
	.loc 1 266 20 is_stmt 0 discriminator 1 view .LVU727
	orl	$-1, %eax
	jmp	.L48
.LVL240:
.L159:
	.loc 1 265 13 is_stmt 1 view .LVU728
	leaq	.LC5(%rip), %rcx
	call	puts
.LVL241:
	.loc 1 266 13 view .LVU729
	.loc 1 266 20 is_stmt 0 view .LVU730
	jmp	.L51
.LBE420:
	.cfi_endproc
.LFE5618:
	.seh_endproc
.lcomm __c_n_m,4,4
.lcomm cache_eu_dist,8,8
.lcomm object,8,8
.lcomm euclidean_distance,8,8
	.data
	.align 4
m:
	.long	2
.lcomm nums_p,4,4
.lcomm dim,4,4
.lcomm n,4,4
.lcomm points,8,8
	.section .rdata,"dr"
	.align 16
.LC1:
	.long	-1
	.long	2147483647
	.long	0
	.long	0
	.align 16
.LC3:
	.long	0
	.long	1
	.long	2
	.long	3
	.align 16
.LC13:
	.long	4
	.long	4
	.long	4
	.long	4
	.text
.Letext0:
	.file 3 "D:/mingw64/x86_64-w64-mingw32/include/crtdefs.h"
	.file 4 "D:/mingw64/x86_64-w64-mingw32/include/math.h"
	.file 5 "D:/mingw64/x86_64-w64-mingw32/include/stdio.h"
	.file 6 "D:/mingw64/x86_64-w64-mingw32/include/stdlib.h"
	.file 7 "D:/mingw64/x86_64-w64-mingw32/include/malloc.h"
	.file 8 "D:/mingw64/x86_64-w64-mingw32/include/_timeval.h"
	.file 9 "D:/mingw64/x86_64-w64-mingw32/include/excpt.h"
	.file 10 "D:/mingw64/x86_64-w64-mingw32/include/minwindef.h"
	.file 11 "D:/mingw64/x86_64-w64-mingw32/include/ctype.h"
	.file 12 "D:/mingw64/x86_64-w64-mingw32/include/basetsd.h"
	.file 13 "D:/mingw64/x86_64-w64-mingw32/include/guiddef.h"
	.file 14 "D:/mingw64/x86_64-w64-mingw32/include/winnt.h"
	.file 15 "D:/mingw64/x86_64-w64-mingw32/include/minwinbase.h"
	.file 16 "D:/mingw64/x86_64-w64-mingw32/include/sysinfoapi.h"
	.file 17 "D:/mingw64/x86_64-w64-mingw32/include/rpcdce.h"
	.file 18 "D:/mingw64/x86_64-w64-mingw32/include/wtypesbase.h"
	.file 19 "D:/mingw64/x86_64-w64-mingw32/include/unknwnbase.h"
	.file 20 "D:/mingw64/x86_64-w64-mingw32/include/objidlbase.h"
	.file 21 "D:/mingw64/x86_64-w64-mingw32/include/cguid.h"
	.file 22 "D:/mingw64/x86_64-w64-mingw32/include/wtypes.h"
	.file 23 "D:/mingw64/x86_64-w64-mingw32/include/objidl.h"
	.file 24 "D:/mingw64/x86_64-w64-mingw32/include/oleidl.h"
	.file 25 "D:/mingw64/x86_64-w64-mingw32/include/servprov.h"
	.file 26 "D:/mingw64/x86_64-w64-mingw32/include/oaidl.h"
	.file 27 "D:/mingw64/x86_64-w64-mingw32/include/msxml.h"
	.file 28 "D:/mingw64/x86_64-w64-mingw32/include/urlmon.h"
	.file 29 "D:/mingw64/x86_64-w64-mingw32/include/propidl.h"
	.file 30 "D:/mingw64/x86_64-w64-mingw32/include/oleauto.h"
	.file 31 "D:/mingw64/x86_64-w64-mingw32/include/winioctl.h"
	.file 32 "D:/mingw64/x86_64-w64-mingw32/include/winsmcrd.h"
	.file 33 "D:/mingw64/x86_64-w64-mingw32/include/winscard.h"
	.file 34 "D:/mingw64/x86_64-w64-mingw32/include/commdlg.h"
	.file 35 "<built-in>"
	.file 36 "D:/mingw64/lib/gcc/x86_64-w64-mingw32/8.1.0/include/omp.h"